(dp0
S'/home/bill/git/school/4953.001/01/exclude'
p1
S'124b41a09a34da6c6fb202f0c5ebe5ff'
p2
sS'/home/bill/git/school/4953.001/01/.lab.01.swp'
p3
S'10ddba01fd94b738fa58a779346a9772'
p4
sS'/home/bill/git/school/4953.001/01/test/3'
p5
S'6d7fce9fee471194aa8b5b6e47267f03'
p6
sS'/home/bill/git/school/4953.001/01/test/1'
p7
S'b026324c6904b2a9cb4b88d6d61c81d1'
p8
sS'/home/bill/git/school/4953.001/01/test/4'
p9
S'48a24b70a0b376535542b996af517398'
p10
sS'/home/bill/git/school/4953.001/01/lab.01'
p11
S'a80b68b11d8cf91b951992bedf12ffd4'
p12
s.