(dp0
S'/root/git/school/4953.001/01/.lab.01.swp'
p1
S'0af352ee49f31581a0301864a4e9442c'
p2
sS'/root/git/school/4953.001/01/test/innerTest/b'
p3
S'd41d8cd98f00b204e9800998ecf8427e'
p4
sS'/root/git/school/4953.001/01/test/innerTest/c'
p5
S'd41d8cd98f00b204e9800998ecf8427e'
p6
sS'/root/git/school/4953.001/01/exclude'
p7
S'7f498b137df6a3574a058adf317b0338'
p8
sS'/root/git/school/4953.001/01/lab.01'
p9
S'faddddb6deec73d769c4a8a61415ba49'
p10
sS'/root/git/school/4953.001/01/test/innerTest/a'
p11
S'd41d8cd98f00b204e9800998ecf8427e'
p12
sS'/root/git/school/4953.001/01/test/1'
p13
S'b026324c6904b2a9cb4b88d6d61c81d1'
p14
sS'/root/git/school/4953.001/01/test/3'
p15
S'e75140699145772d942b4a7575e906af'
p16
sS'/root/git/school/4953.001/01/outFile'
p17
S'd41d8cd98f00b204e9800998ecf8427e'
p18
sS'/root/git/school/4953.001/01/test1'
p19
S'd41d8cd98f00b204e9800998ecf8427e'
p20
sS'/root/git/school/4953.001/01/test/2'
p21
S'26ab0db90d72e28ad0ba1e22ee510510'
p22
s.